; Function Attrs: nounwind uwtable
define void @dt_gui_gtk_set_source_rgba(ptr noundef %0, i32 noundef %1, float noundef %2) local_unnamed_addr #0 {
  %4 = load ptr, ptr getelementptr inbounds nuw (i8, ptr @darktable, i64 104), align 8, !tbaa !15
  %5 = getelementptr inbounds nuw i8, ptr %4, i64 104
  %6 = zext i32 %1 to i64
  %7 = getelementptr inbounds nuw [39 x %struct._GdkRGBA], ptr %5, i64 0, i64 %6
  %.sroa.0.0.copyload = load double, ptr %7, align 8, !tbaa !59
  %.sroa.4.0..sroa_idx = getelementptr inbounds nuw i8, ptr %7, i64 8
  %.sroa.4.0.copyload = load double, ptr %.sroa.4.0..sroa_idx, align 8, !tbaa !59
  %.sroa.5.0..sroa_idx = getelementptr inbounds nuw i8, ptr %7, i64 16
  %.sroa.5.0.copyload = load double, ptr %.sroa.5.0..sroa_idx, align 8, !tbaa !59
  %.sroa.6.0..sroa_idx = getelementptr inbounds nuw i8, ptr %7, i64 24
  %.sroa.6.0.copyload = load double, ptr %.sroa.6.0..sroa_idx, align 8, !tbaa !59
  %8 = fpext reassoc nsz arcp contract afn float %2 to double
  %9 = fmul reassoc nsz arcp contract afn double %.sroa.6.0.copyload, %8
  tail call void @cairo_set_source_rgba(ptr noundef %0, double noundef %.sroa.0.0.copyload, double noundef %.sroa.4.0.copyload, double noundef %.sroa.5.0.copyload, double noundef %9) #18
  ret void
}